target datalayout = "e-m:e-p270:32:32-p271:32:32-p272:64:64-i64:64-i128:128-f80:128-n8:16:32:64-S128"
target triple = "x86_64-pc-linux-gnu"

%struct.psset_s = type { [64 x %struct.hpdata_age_heap_t], [1 x i64], %struct.psset_bin_stats_s, %struct.psset_stats_s, %struct.hpdata_empty_list_t, [128 x %struct.hpdata_purge_list_t], [2 x i64], %struct.hpdata_hugify_list_t }
%struct.hpdata_age_heap_t = type { %struct.ph_s }
%struct.ph_s = type { ptr, i64 }
%struct.psset_bin_stats_s = type { i64, i64, i64 }
%struct.psset_stats_s = type { [64 x [2 x %struct.psset_bin_stats_s]], [2 x %struct.psset_bin_stats_s], [2 x %struct.psset_bin_stats_s] }
%struct.hpdata_empty_list_t = type { %struct.anon }
%struct.anon = type { ptr }
%struct.hpdata_purge_list_t = type { %struct.anon.0 }
%struct.anon.0 = type { ptr }
%struct.hpdata_hugify_list_t = type { %struct.anon.1 }
%struct.anon.1 = type { ptr }

; Function Attrs: inlinehint nounwind uwtable
define internal void @hpdata_hugify_list_init(ptr noundef %0) #3 {
  %2 = alloca ptr, align 8
  store ptr %0, ptr %2, align 8, !tbaa !18
  br label %3

3:                                                ; preds = %1
  %4 = load ptr, ptr %2, align 8, !tbaa !18
  %5 = getelementptr inbounds nuw %struct.hpdata_hugify_list_t, ptr %4, i32 0, i32 0
  %6 = getelementptr inbounds nuw %struct.anon.1, ptr %5, i32 0, i32 0
  store ptr null, ptr %6, align 8, !tbaa !19
  br label %7

7:                                                ; preds = %3
  ret void
}

; Function Attrs: inlinehint nounwind uwtable
define internal void @hpdata_purge_list_init(ptr noundef %0) #3 {
  %2 = alloca ptr, align 8
  store ptr %0, ptr %2, align 8, !tbaa !18
  br label %3

3:                                                ; preds = %1
  %4 = load ptr, ptr %2, align 8, !tbaa !18
  %5 = getelementptr inbounds nuw %struct.hpdata_purge_list_t, ptr %4, i32 0, i32 0
  %6 = getelementptr inbounds nuw %struct.anon.0, ptr %5, i32 0, i32 0
  store ptr null, ptr %6, align 8, !tbaa !19
  br label %7

7:                                                ; preds = %3
  ret void
}

; Function Attrs: inlinehint nounwind uwtable
define internal void @hpdata_empty_list_init(ptr noundef %0) #3 {
  %2 = alloca ptr, align 8
  store ptr %0, ptr %2, align 8, !tbaa !18
  br label %3

3:                                                ; preds = %1
  %4 = load ptr, ptr %2, align 8, !tbaa !18
  %5 = getelementptr inbounds nuw %struct.hpdata_empty_list_t, ptr %4, i32 0, i32 0
  %6 = getelementptr inbounds nuw %struct.anon, ptr %5, i32 0, i32 0
  store ptr null, ptr %6, align 8, !tbaa !19
  br label %7

7:                                                ; preds = %3
  ret void
}

; Function Attrs: inlinehint nounwind uwtable
define internal void @fb_init(ptr noundef %0, i64 noundef %1) #3 {
  %3 = alloca ptr, align 8
  %4 = alloca i64, align 8
  %5 = alloca i64, align 8
  store ptr %0, ptr %3, align 8, !tbaa !14
  store i64 %1, ptr %4, align 8, !tbaa !16
  call void @llvm.lifetime.start.p0(i64 8, ptr %5) #8
  %6 = load i64, ptr %4, align 8, !tbaa !16
  %7 = udiv i64 %6, 64
  %8 = load i64, ptr %4, align 8, !tbaa !16
  %9 = urem i64 %8, 64
  %10 = icmp eq i64 %9, 0
  %11 = select i1 %10, i32 0, i32 1
  %12 = sext i32 %11 to i64
  %13 = add i64 %7, %12
  store i64 %13, ptr %5, align 8, !tbaa !16
  %14 = load ptr, ptr %3, align 8, !tbaa !14
  %15 = load i64, ptr %5, align 8, !tbaa !16
  %16 = mul i64 %15, 8
  call void @llvm.memset.p0.i64(ptr align 8 %14, i8 0, i64 %16, i1 false)
  call void @llvm.lifetime.end.p0(i64 8, ptr %5) #8
  ret void
}

; Function Attrs: nounwind uwtable
define hidden void @je_psset_init(ptr noundef %0) #0 {
  %2 = alloca ptr, align 8
  %3 = alloca i32, align 4
  %4 = alloca i32, align 4
  store ptr %0, ptr %2, align 8, !tbaa !4
  call void @llvm.lifetime.start.p0(i64 4, ptr %3) #8
  store i32 0, ptr %3, align 4, !tbaa !9
  br label %5

5:                                                ; preds = %15, %1
  %6 = load i32, ptr %3, align 4, !tbaa !9
  %7 = icmp ult i32 %6, 64
  br i1 %7, label %9, label %8

8:                                                ; preds = %5
  call void @llvm.lifetime.end.p0(i64 4, ptr %3) #8
  br label %18

9:                                                ; preds = %5
  %10 = load ptr, ptr %2, align 8, !tbaa !4
  %11 = getelementptr inbounds nuw %struct.psset_s, ptr %10, i32 0, i32 0
  %12 = load i32, ptr %3, align 4, !tbaa !9
  %13 = zext i32 %12 to i64
  %14 = getelementptr inbounds nuw [64 x %struct.hpdata_age_heap_t], ptr %11, i64 0, i64 %13
  call void @je_hpdata_age_heap_new(ptr noundef %14)
  br label %15

15:                                               ; preds = %9
  %16 = load i32, ptr %3, align 4, !tbaa !9
  %17 = add i32 %16, 1
  store i32 %17, ptr %3, align 4, !tbaa !9
  br label %5, !llvm.loop !11

18:                                               ; preds = %8
  %19 = load ptr, ptr %2, align 8, !tbaa !4
  %20 = getelementptr inbounds nuw %struct.psset_s, ptr %19, i32 0, i32 1
  %21 = getelementptr inbounds [1 x i64], ptr %20, i64 0, i64 0
  call void @fb_init(ptr noundef %21, i64 noundef 64)
  %22 = load ptr, ptr %2, align 8, !tbaa !4
  %23 = getelementptr inbounds nuw %struct.psset_s, ptr %22, i32 0, i32 2
  call void @llvm.memset.p0.i64(ptr align 8 %23, i8 0, i64 24, i1 false)
  %24 = load ptr, ptr %2, align 8, !tbaa !4
  %25 = getelementptr inbounds nuw %struct.psset_s, ptr %24, i32 0, i32 3
  call void @llvm.memset.p0.i64(ptr align 8 %25, i8 0, i64 3168, i1 false)
  %26 = load ptr, ptr %2, align 8, !tbaa !4
  %27 = getelementptr inbounds nuw %struct.psset_s, ptr %26, i32 0, i32 4
  call void @hpdata_empty_list_init(ptr noundef %27)
  call void @llvm.lifetime.start.p0(i64 4, ptr %4) #8
  store i32 0, ptr %4, align 4, !tbaa !9
  br label %28

28:                                               ; preds = %38, %18
  %29 = load i32, ptr %4, align 4, !tbaa !9
  %30 = icmp slt i32 %29, 128
  br i1 %30, label %32, label %31

31:                                               ; preds = %28
  call void @llvm.lifetime.end.p0(i64 4, ptr %4) #8
  br label %41

32:                                               ; preds = %28
  %33 = load ptr, ptr %2, align 8, !tbaa !4
  %34 = getelementptr inbounds nuw %struct.psset_s, ptr %33, i32 0, i32 5
  %35 = load i32, ptr %4, align 4, !tbaa !9
  %36 = sext i32 %35 to i64
  %37 = getelementptr inbounds [128 x %struct.hpdata_purge_list_t], ptr %34, i64 0, i64 %36
  call void @hpdata_purge_list_init(ptr noundef %37)
  br label %38

38:                                               ; preds = %32
  %39 = load i32, ptr %4, align 4, !tbaa !9
  %40 = add nsw i32 %39, 1
  store i32 %40, ptr %4, align 4, !tbaa !9
  br label %28, !llvm.loop !13

41:                                               ; preds = %31
  %42 = load ptr, ptr %2, align 8, !tbaa !4
  %43 = getelementptr inbounds nuw %struct.psset_s, ptr %42, i32 0, i32 6
  %44 = getelementptr inbounds [2 x i64], ptr %43, i64 0, i64 0
  call void @fb_init(ptr noundef %44, i64 noundef 128)
  %45 = load ptr, ptr %2, align 8, !tbaa !4
  %46 = getelementptr inbounds nuw %struct.psset_s, ptr %45, i32 0, i32 7
  call void @hpdata_hugify_list_init(ptr noundef %46)
  ret void
}